target datalayout = "e-m:e-p270:32:32-p271:32:32-p272:64:64-i64:64-i128:128-f80:128-n8:16:32:64-S128"
target triple = "x86_64-pc-linux-gnu"

%struct._object = type { %union.anon, ptr }
%union.anon = type { i64 }
%struct._typeobject = type { %struct.PyVarObject, ptr, i64, i64, ptr, i64, ptr, ptr, ptr, ptr, ptr, ptr, ptr, ptr, ptr, ptr, ptr, ptr, ptr, i64, ptr, ptr, ptr, ptr, i64, ptr, ptr, ptr, ptr, ptr, ptr, ptr, ptr, ptr, i64, ptr, ptr, ptr, ptr, ptr, ptr, ptr, ptr, ptr, ptr, ptr, i32, ptr, ptr, i8, i16 }
%struct.PyVarObject = type { %struct._object, i64 }
%struct._ffi_type = type { i64, i16, i16, ptr }
%struct.ctypes_state = type { ptr, ptr, ptr, ptr, ptr, ptr, ptr, ptr, ptr, ptr, ptr, ptr, ptr, ptr, ptr, ptr, ptr, ptr, ptr, ptr, ptr, ptr, ptr, ptr, ptr }
%struct.anon = type { i32, i32 }
%struct.StgInfo = type { i32, i64, i64, i64, %struct._ffi_type, ptr, ptr, ptr, ptr, ptr, ptr, ptr, ptr, ptr, i32, ptr, i32, ptr }
%struct.tagCDataObject = type { %struct._object, ptr, i32, ptr, i64, i64, i64, ptr, %union.value }
%union.value = type { x86_fp80 }
%struct.tagPyCArgObject = type { %struct._object, ptr, i8, %union.anon.0, ptr, i64 }
%union.anon.0 = type { x86_fp80 }
%struct.StructParamObject = type { %struct._object, ptr, ptr }

; Function Attrs: inlinehint nounwind uwtable
define internal i32 @_stginfo_from_type(ptr noundef %0, ptr noundef %1, ptr noundef %2) #2 {
  %4 = alloca i32, align 4
  %5 = alloca ptr, align 8
  %6 = alloca ptr, align 8
  %7 = alloca ptr, align 8
  %8 = alloca ptr, align 8
  %9 = alloca i32, align 4
  store ptr %0, ptr %5, align 8, !tbaa !3
  store ptr %1, ptr %6, align 8, !tbaa !50
  store ptr %2, ptr %7, align 8, !tbaa !3
  %10 = load ptr, ptr %7, align 8, !tbaa !3
  store ptr null, ptr %10, align 8, !tbaa !3
  %11 = load ptr, ptr %6, align 8, !tbaa !50
  %12 = load ptr, ptr %5, align 8, !tbaa !3
  %13 = getelementptr inbounds nuw %struct.ctypes_state, ptr %12, i32 0, i32 5
  %14 = load ptr, ptr %13, align 8, !tbaa !80
  %15 = call i32 @PyObject_IsInstance(ptr noundef %11, ptr noundef %14)
  %16 = icmp ne i32 %15, 0
  br i1 %16, label %18, label %17

17:                                               ; preds = %3
  store i32 0, ptr %4, align 4
  br label %33

18:                                               ; preds = %3
  call void @llvm.lifetime.start.p0(i64 8, ptr %8) #9
  %19 = load ptr, ptr %6, align 8, !tbaa !50
  %20 = load ptr, ptr %5, align 8, !tbaa !3
  %21 = getelementptr inbounds nuw %struct.ctypes_state, ptr %20, i32 0, i32 5
  %22 = load ptr, ptr %21, align 8, !tbaa !80
  %23 = call ptr @PyObject_GetTypeData(ptr noundef %19, ptr noundef %22)
  store ptr %23, ptr %8, align 8, !tbaa !3
  %24 = load ptr, ptr %8, align 8, !tbaa !3
  %25 = getelementptr inbounds nuw %struct.StgInfo, ptr %24, i32 0, i32 0
  %26 = load i32, ptr %25, align 8, !tbaa !115
  %27 = icmp ne i32 %26, 0
  br i1 %27, label %29, label %28

28:                                               ; preds = %18
  store i32 0, ptr %4, align 4
  store i32 1, ptr %9, align 4
  br label %32

29:                                               ; preds = %18
  %30 = load ptr, ptr %8, align 8, !tbaa !3
  %31 = load ptr, ptr %7, align 8, !tbaa !3
  store ptr %30, ptr %31, align 8, !tbaa !3
  store i32 1, ptr %4, align 4
  store i32 1, ptr %9, align 4
  br label %32

32:                                               ; preds = %29, %28
  call void @llvm.lifetime.end.p0(i64 8, ptr %8) #9
  br label %33

33:                                               ; preds = %32, %17
  %34 = load i32, ptr %4, align 4
  ret i32 %34
}

; Function Attrs: inlinehint nounwind uwtable
define internal ptr @_Py_TYPE(ptr noundef %0) #2 {
  %2 = alloca ptr, align 8
  store ptr %0, ptr %2, align 8, !tbaa !7
  %3 = load ptr, ptr %2, align 8, !tbaa !7
  %4 = getelementptr inbounds nuw %struct._object, ptr %3, i32 0, i32 1
  %5 = load ptr, ptr %4, align 8, !tbaa !84
  ret ptr %5
}

; Function Attrs: alwaysinline nounwind uwtable
define internal i32 @_Py_IsImmortal(ptr noundef %0) #4 {
  %2 = alloca ptr, align 8
  store ptr %0, ptr %2, align 8, !tbaa !7
  %3 = load ptr, ptr %2, align 8, !tbaa !7
  %4 = getelementptr inbounds nuw %struct._object, ptr %3, i32 0, i32 0
  %5 = getelementptr inbounds nuw %struct.anon, ptr %4, i32 0, i32 0
  %6 = load i32, ptr %5, align 8, !tbaa !20
  %7 = icmp slt i32 %6, 0
  %8 = zext i1 %7 to i32
  ret i32 %8
}

; Function Attrs: alwaysinline nounwind uwtable
define internal void @Py_INCREF(ptr noundef %0) #4 {
  %2 = alloca ptr, align 8
  %3 = alloca i32, align 4
  %4 = alloca i32, align 4
  store ptr %0, ptr %2, align 8, !tbaa !7
  call void @llvm.lifetime.start.p0(i64 4, ptr %3) #9
  %5 = load ptr, ptr %2, align 8, !tbaa !7
  %6 = getelementptr inbounds nuw %struct._object, ptr %5, i32 0, i32 0
  %7 = getelementptr inbounds nuw %struct.anon, ptr %6, i32 0, i32 0
  %8 = load i32, ptr %7, align 8, !tbaa !20
  store i32 %8, ptr %3, align 4, !tbaa !16
  %9 = load i32, ptr %3, align 4, !tbaa !16
  %10 = icmp slt i32 %9, 0
  br i1 %10, label %11, label %12

11:                                               ; preds = %1
  store i32 1, ptr %4, align 4
  br label %18

12:                                               ; preds = %1
  %13 = load i32, ptr %3, align 4, !tbaa !16
  %14 = add i32 %13, 1
  %15 = load ptr, ptr %2, align 8, !tbaa !7
  %16 = getelementptr inbounds nuw %struct._object, ptr %15, i32 0, i32 0
  %17 = getelementptr inbounds nuw %struct.anon, ptr %16, i32 0, i32 0
  store i32 %14, ptr %17, align 8, !tbaa !20
  store i32 0, ptr %4, align 4
  br label %18

18:                                               ; preds = %12, %11
  call void @llvm.lifetime.end.p0(i64 4, ptr %3) #9
  %19 = load i32, ptr %4, align 4
  switch i32 %19, label %21 [
    i32 0, label %20
    i32 1, label %20
  ]

20:                                               ; preds = %18, %18
  ret void

21:                                               ; preds = %18
  unreachable
}

; Function Attrs: inlinehint nounwind uwtable
define internal void @UNLOCK_PTR(ptr noundef %0) #2 {
  %2 = alloca ptr, align 8
  store ptr %0, ptr %2, align 8, !tbaa !39
  ret void
}

; Function Attrs: inlinehint nounwind uwtable
define internal void @LOCK_PTR(ptr noundef %0) #2 {
  %2 = alloca ptr, align 8
  store ptr %0, ptr %2, align 8, !tbaa !39
  ret void
}

; Function Attrs: inlinehint nounwind uwtable
define internal i32 @PyStgInfo_FromObject(ptr noundef %0, ptr noundef %1, ptr noundef %2) #2 {
  %4 = alloca ptr, align 8
  %5 = alloca ptr, align 8
  %6 = alloca ptr, align 8
  store ptr %0, ptr %4, align 8, !tbaa !3
  store ptr %1, ptr %5, align 8, !tbaa !7
  store ptr %2, ptr %6, align 8, !tbaa !3
  %7 = load ptr, ptr %4, align 8, !tbaa !3
  %8 = load ptr, ptr %5, align 8, !tbaa !7
  %9 = call ptr @_Py_TYPE(ptr noundef %8)
  %10 = load ptr, ptr %6, align 8, !tbaa !3
  %11 = call i32 @_stginfo_from_type(ptr noundef %7, ptr noundef %9, ptr noundef %10)
  ret i32 %11
}

; Function Attrs: alwaysinline nounwind uwtable
define internal void @Py_DECREF(ptr noundef %0) #4 {
  %2 = alloca ptr, align 8
  store ptr %0, ptr %2, align 8, !tbaa !7
  %3 = load ptr, ptr %2, align 8, !tbaa !7
  %4 = call i32 @_Py_IsImmortal(ptr noundef %3)
  %5 = icmp ne i32 %4, 0
  br i1 %5, label %6, label %7

6:                                                ; preds = %1
  br label %16

7:                                                ; preds = %1
  %8 = load ptr, ptr %2, align 8, !tbaa !7
  %9 = getelementptr inbounds nuw %struct._object, ptr %8, i32 0, i32 0
  %10 = getelementptr inbounds nuw %struct.anon, ptr %9, i32 0, i32 0
  %11 = load i32, ptr %10, align 8, !tbaa !20
  %12 = add i32 %11, -1
  store i32 %12, ptr %10, align 8, !tbaa !20
  %13 = icmp eq i32 %12, 0
  br i1 %13, label %14, label %16

14:                                               ; preds = %7
  %15 = load ptr, ptr %2, align 8, !tbaa !7
  call void @_Py_Dealloc(ptr noundef %15)
  br label %16

16:                                               ; preds = %6, %14, %7
  ret void
}

; Function Attrs: inlinehint nounwind uwtable
define internal ptr @_Py_NewRef(ptr noundef %0) #2 {
  %2 = alloca ptr, align 8
  store ptr %0, ptr %2, align 8, !tbaa !7
  %3 = load ptr, ptr %2, align 8, !tbaa !7
  call void @Py_INCREF(ptr noundef %3)
  %4 = load ptr, ptr %2, align 8, !tbaa !7
  ret ptr %4
}

; Function Attrs: inlinehint nounwind uwtable
define internal void @locked_memcpy_from(ptr noundef %0, ptr noundef %1, i64 noundef %2) #2 {
  %4 = alloca ptr, align 8
  %5 = alloca ptr, align 8
  %6 = alloca i64, align 8
  store ptr %0, ptr %4, align 8, !tbaa !3
  store ptr %1, ptr %5, align 8, !tbaa !39
  store i64 %2, ptr %6, align 8, !tbaa !23
  %7 = load ptr, ptr %5, align 8, !tbaa !39
  call void @LOCK_PTR(ptr noundef %7)
  %8 = load ptr, ptr %4, align 8, !tbaa !3
  %9 = load ptr, ptr %5, align 8, !tbaa !39
  %10 = getelementptr inbounds nuw %struct.tagCDataObject, ptr %9, i32 0, i32 1
  %11 = load ptr, ptr %10, align 16, !tbaa !46
  %12 = load i64, ptr %6, align 8, !tbaa !23
  call void @llvm.memcpy.p0.p0.i64(ptr align 1 %8, ptr align 1 %11, i64 %12, i1 false)
  %13 = load ptr, ptr %5, align 8, !tbaa !39
  call void @UNLOCK_PTR(ptr noundef %13)
  ret void
}

; Function Attrs: nounwind uwtable
define internal ptr @StructUnionType_paramfunc(ptr noundef %0, ptr noundef %1) #0 {
  %3 = alloca ptr, align 8
  %4 = alloca ptr, align 8
  %5 = alloca ptr, align 8
  %6 = alloca ptr, align 8
  %7 = alloca ptr, align 8
  %8 = alloca ptr, align 8
  %9 = alloca i32, align 4
  %10 = alloca ptr, align 8
  %11 = alloca ptr, align 8
  %12 = alloca ptr, align 8
  store ptr %0, ptr %4, align 8, !tbaa !3
  store ptr %1, ptr %5, align 8, !tbaa !39
  call void @llvm.lifetime.start.p0(i64 8, ptr %6) #9
  call void @llvm.lifetime.start.p0(i64 8, ptr %7) #9
  call void @llvm.lifetime.start.p0(i64 8, ptr %8) #9
  %13 = load ptr, ptr %5, align 8, !tbaa !39
  %14 = getelementptr inbounds nuw %struct.tagCDataObject, ptr %13, i32 0, i32 4
  %15 = load i64, ptr %14, align 8, !tbaa !45
  %16 = icmp ugt i64 %15, 8
  br i1 %16, label %17, label %55

17:                                               ; preds = %2
  %18 = load ptr, ptr %5, align 8, !tbaa !39
  %19 = getelementptr inbounds nuw %struct.tagCDataObject, ptr %18, i32 0, i32 4
  %20 = load i64, ptr %19, align 8, !tbaa !45
  %21 = call ptr @PyMem_Malloc(i64 noundef %20)
  store ptr %21, ptr %8, align 8, !tbaa !3
  %22 = load ptr, ptr %8, align 8, !tbaa !3
  %23 = icmp eq ptr %22, null
  br i1 %23, label %24, label %25

24:                                               ; preds = %17
  store ptr null, ptr %3, align 8
  store i32 1, ptr %9, align 4
  br label %95

25:                                               ; preds = %17
  %26 = load ptr, ptr %8, align 8, !tbaa !3
  %27 = load ptr, ptr %5, align 8, !tbaa !39
  %28 = load ptr, ptr %5, align 8, !tbaa !39
  %29 = getelementptr inbounds nuw %struct.tagCDataObject, ptr %28, i32 0, i32 4
  %30 = load i64, ptr %29, align 8, !tbaa !45
  call void @locked_memcpy_from(ptr noundef %26, ptr noundef %27, i64 noundef %30)
  call void @llvm.lifetime.start.p0(i64 8, ptr %10) #9
  %31 = load ptr, ptr %4, align 8, !tbaa !3
  %32 = getelementptr inbounds nuw %struct.ctypes_state, ptr %31, i32 0, i32 4
  %33 = load ptr, ptr %32, align 8, !tbaa !72
  store ptr %33, ptr %10, align 8, !tbaa !50
  %34 = load ptr, ptr %10, align 8, !tbaa !50
  %35 = getelementptr inbounds nuw %struct._typeobject, ptr %34, i32 0, i32 36
  %36 = load ptr, ptr %35, align 8, !tbaa !33
  %37 = load ptr, ptr %10, align 8, !tbaa !50
  %38 = call ptr %36(ptr noundef %37, i64 noundef 0)
  store ptr %38, ptr %7, align 8, !tbaa !7
  %39 = load ptr, ptr %7, align 8, !tbaa !7
  %40 = icmp eq ptr %39, null
  br i1 %40, label %41, label %43

41:                                               ; preds = %25
  %42 = load ptr, ptr %8, align 8, !tbaa !3
  call void @PyMem_Free(ptr noundef %42)
  store ptr null, ptr %3, align 8
  store i32 1, ptr %9, align 4
  br label %52

43:                                               ; preds = %25
  call void @llvm.lifetime.start.p0(i64 8, ptr %11) #9
  %44 = load ptr, ptr %7, align 8, !tbaa !7
  store ptr %44, ptr %11, align 8, !tbaa !3
  %45 = load ptr, ptr %8, align 8, !tbaa !3
  %46 = load ptr, ptr %11, align 8, !tbaa !3
  %47 = getelementptr inbounds nuw %struct.StructParamObject, ptr %46, i32 0, i32 1
  store ptr %45, ptr %47, align 8, !tbaa !149
  %48 = load ptr, ptr %5, align 8, !tbaa !39
  %49 = call ptr @_Py_NewRef(ptr noundef %48)
  %50 = load ptr, ptr %11, align 8, !tbaa !3
  %51 = getelementptr inbounds nuw %struct.StructParamObject, ptr %50, i32 0, i32 2
  store ptr %49, ptr %51, align 8, !tbaa !151
  call void @llvm.lifetime.end.p0(i64 8, ptr %11) #9
  store i32 0, ptr %9, align 4
  br label %52

52:                                               ; preds = %43, %41
  call void @llvm.lifetime.end.p0(i64 8, ptr %10) #9
  %53 = load i32, ptr %9, align 4
  switch i32 %53, label %95 [
    i32 0, label %54
  ]

54:                                               ; preds = %52
  br label %61

55:                                               ; preds = %2
  %56 = load ptr, ptr %5, align 8, !tbaa !39
  %57 = getelementptr inbounds nuw %struct.tagCDataObject, ptr %56, i32 0, i32 1
  %58 = load ptr, ptr %57, align 16, !tbaa !46
  store ptr %58, ptr %8, align 8, !tbaa !3
  %59 = load ptr, ptr %5, align 8, !tbaa !39
  %60 = call ptr @_Py_NewRef(ptr noundef %59)
  store ptr %60, ptr %7, align 8, !tbaa !7
  br label %61

61:                                               ; preds = %55, %54
  %62 = load ptr, ptr %4, align 8, !tbaa !3
  %63 = call ptr @PyCArgObject_new(ptr noundef %62)
  store ptr %63, ptr %6, align 8, !tbaa !135
  %64 = load ptr, ptr %6, align 8, !tbaa !135
  %65 = icmp eq ptr %64, null
  br i1 %65, label %66, label %68

66:                                               ; preds = %61
  %67 = load ptr, ptr %7, align 8, !tbaa !7
  call void @Py_DECREF(ptr noundef %67)
  store ptr null, ptr %3, align 8
  store i32 1, ptr %9, align 4
  br label %95

68:                                               ; preds = %61
  call void @llvm.lifetime.start.p0(i64 8, ptr %12) #9
  %69 = load ptr, ptr %4, align 8, !tbaa !3
  %70 = load ptr, ptr %5, align 8, !tbaa !39
  %71 = call i32 @PyStgInfo_FromObject(ptr noundef %69, ptr noundef %70, ptr noundef %12)
  %72 = icmp slt i32 %71, 0
  br i1 %72, label %73, label %75

73:                                               ; preds = %68
  %74 = load ptr, ptr %7, align 8, !tbaa !7
  call void @Py_DECREF(ptr noundef %74)
  store ptr null, ptr %3, align 8
  store i32 1, ptr %9, align 4
  br label %94

75:                                               ; preds = %68
  %76 = load ptr, ptr %6, align 8, !tbaa !135
  %77 = getelementptr inbounds nuw %struct.tagPyCArgObject, ptr %76, i32 0, i32 2
  store i8 86, ptr %77, align 8, !tbaa !152
  %78 = load ptr, ptr %12, align 8, !tbaa !3
  %79 = getelementptr inbounds nuw %struct.StgInfo, ptr %78, i32 0, i32 4
  %80 = load ptr, ptr %6, align 8, !tbaa !135
  %81 = getelementptr inbounds nuw %struct.tagPyCArgObject, ptr %80, i32 0, i32 1
  store ptr %79, ptr %81, align 16, !tbaa !153
  %82 = load ptr, ptr %8, align 8, !tbaa !3
  %83 = load ptr, ptr %6, align 8, !tbaa !135
  %84 = getelementptr inbounds nuw %struct.tagPyCArgObject, ptr %83, i32 0, i32 3
  store ptr %82, ptr %84, align 16, !tbaa !20
  %85 = load ptr, ptr %5, align 8, !tbaa !39
  %86 = getelementptr inbounds nuw %struct.tagCDataObject, ptr %85, i32 0, i32 4
  %87 = load i64, ptr %86, align 8, !tbaa !45
  %88 = load ptr, ptr %6, align 8, !tbaa !135
  %89 = getelementptr inbounds nuw %struct.tagPyCArgObject, ptr %88, i32 0, i32 5
  store i64 %87, ptr %89, align 8, !tbaa !154
  %90 = load ptr, ptr %7, align 8, !tbaa !7
  %91 = load ptr, ptr %6, align 8, !tbaa !135
  %92 = getelementptr inbounds nuw %struct.tagPyCArgObject, ptr %91, i32 0, i32 4
  store ptr %90, ptr %92, align 16, !tbaa !137
  %93 = load ptr, ptr %6, align 8, !tbaa !135
  store ptr %93, ptr %3, align 8
  store i32 1, ptr %9, align 4
  br label %94

94:                                               ; preds = %75, %73
  call void @llvm.lifetime.end.p0(i64 8, ptr %12) #9
  br label %95

95:                                               ; preds = %94, %66, %52, %24
  call void @llvm.lifetime.end.p0(i64 8, ptr %8) #9
  call void @llvm.lifetime.end.p0(i64 8, ptr %7) #9
  call void @llvm.lifetime.end.p0(i64 8, ptr %6) #9
  %96 = load ptr, ptr %3, align 8
  ret ptr %96
}