; Function Attrs: nounwind uwtable
define internal ptr @StructUnionType_paramfunc(ptr noundef %0, ptr noundef %1) #0 {
  %3 = getelementptr inbounds nuw i8, ptr %1, i64 40
  %4 = load i64, ptr %3, align 8, !tbaa !41
  %5 = icmp ugt i64 %4, 8
  br i1 %5, label %6, label %25

6:                                                ; preds = %2
  %7 = tail call ptr @PyMem_Malloc(i64 noundef %4) #17
  %8 = icmp eq ptr %7, null
  br i1 %8, label %Py_DECREF.exit, label %9

9:                                                ; preds = %6
  %10 = load i64, ptr %3, align 8, !tbaa !41
  %11 = getelementptr i8, ptr %1, i64 16
  %.val = load ptr, ptr %11, align 16, !tbaa !42
  tail call void @llvm.memcpy.p0.p0.i64(ptr nonnull align 1 %7, ptr readonly align 1 %.val, i64 %10, i1 false)
  %12 = getelementptr inbounds nuw i8, ptr %0, i64 32
  %13 = load ptr, ptr %12, align 8, !tbaa !74
  %14 = getelementptr inbounds nuw i8, ptr %13, i64 304
  %15 = load ptr, ptr %14, align 8, !tbaa !35
  %16 = tail call ptr %15(ptr noundef %13, i64 noundef 0) #17
  %.not = icmp eq ptr %16, null
  br i1 %.not, label %.thread, label %17

.thread:                                          ; preds = %9
  tail call void @PyMem_Free(ptr noundef nonnull %7) #17
  br label %Py_DECREF.exit

17:                                               ; preds = %9
  %18 = getelementptr inbounds nuw i8, ptr %16, i64 16
  store ptr %7, ptr %18, align 8, !tbaa !134
  %19 = load i32, ptr %1, align 8, !tbaa !23
  %20 = icmp slt i32 %19, 0
  br i1 %20, label %23, label %21

21:                                               ; preds = %17
  %22 = add nuw i32 %19, 1
  store i32 %22, ptr %1, align 8, !tbaa !23
  br label %23

23:                                               ; preds = %21, %17
  %24 = getelementptr inbounds nuw i8, ptr %16, i64 24
  store ptr %1, ptr %24, align 8, !tbaa !136
  br label %_Py_NewRef.exit42

25:                                               ; preds = %2
  %26 = getelementptr inbounds nuw i8, ptr %1, i64 16
  %27 = load ptr, ptr %26, align 16, !tbaa !42
  %28 = load i32, ptr %1, align 8, !tbaa !23
  %29 = icmp slt i32 %28, 0
  br i1 %29, label %_Py_NewRef.exit42, label %30

30:                                               ; preds = %25
  %31 = add nuw i32 %28, 1
  store i32 %31, ptr %1, align 8, !tbaa !23
  br label %_Py_NewRef.exit42

_Py_NewRef.exit42:                                ; preds = %30, %25, %23
  %.036 = phi ptr [ %7, %23 ], [ %27, %25 ], [ %27, %30 ]
  %.034 = phi ptr [ %16, %23 ], [ %1, %25 ], [ %1, %30 ]
  %32 = tail call ptr @PyCArgObject_new(ptr noundef %0) #17
  %33 = icmp eq ptr %32, null
  br i1 %33, label %34, label %40

34:                                               ; preds = %_Py_NewRef.exit42
  %35 = load i32, ptr %.034, align 8, !tbaa !23
  %.not.i = icmp sgt i32 %35, -1
  br i1 %.not.i, label %36, label %Py_DECREF.exit

36:                                               ; preds = %34
  %37 = add nsw i32 %35, -1
  store i32 %37, ptr %.034, align 8, !tbaa !23
  %38 = icmp eq i32 %37, 0
  br i1 %38, label %39, label %Py_DECREF.exit

39:                                               ; preds = %36
  tail call void @_Py_Dealloc(ptr noundef nonnull %.034) #17
  br label %Py_DECREF.exit

40:                                               ; preds = %_Py_NewRef.exit42
  %41 = getelementptr i8, ptr %1, i64 8
  %.val41 = load ptr, ptr %41, align 8, !tbaa !10
  %42 = getelementptr inbounds nuw i8, ptr %0, i64 40
  %43 = load ptr, ptr %42, align 8, !tbaa !28
  %44 = tail call i32 @PyObject_IsInstance(ptr noundef %.val41, ptr noundef %43) #17
  %.not.i.i = icmp eq i32 %44, 0
  br i1 %.not.i.i, label %PyStgInfo_FromObject.exit, label %45

45:                                               ; preds = %40
  %46 = load ptr, ptr %42, align 8, !tbaa !28
  %47 = tail call ptr @PyObject_GetTypeData(ptr noundef %.val41, ptr noundef %46) #17
  %48 = load i32, ptr %47, align 8, !tbaa !29
  %.not8.i.i = icmp eq i32 %48, 0
  %spec.select = select i1 %.not8.i.i, ptr null, ptr %47
  br label %PyStgInfo_FromObject.exit

PyStgInfo_FromObject.exit:                        ; preds = %45, %40
  %.043 = phi ptr [ null, %40 ], [ %spec.select, %45 ]
  %49 = getelementptr inbounds nuw i8, ptr %32, i64 24
  store i8 86, ptr %49, align 8, !tbaa !137
  %50 = getelementptr inbounds nuw i8, ptr %.043, i64 32
  %51 = getelementptr inbounds nuw i8, ptr %32, i64 16
  store ptr %50, ptr %51, align 16, !tbaa !138
  %52 = getelementptr inbounds nuw i8, ptr %32, i64 32
  store ptr %.036, ptr %52, align 16, !tbaa !23
  %53 = load i64, ptr %3, align 8, !tbaa !41
  %54 = getelementptr inbounds nuw i8, ptr %32, i64 56
  store i64 %53, ptr %54, align 8, !tbaa !139
  %55 = getelementptr inbounds nuw i8, ptr %32, i64 48
  store ptr %.034, ptr %55, align 16, !tbaa !120
  br label %Py_DECREF.exit

Py_DECREF.exit:                                   ; preds = %39, %36, %34, %.thread, %6, %PyStgInfo_FromObject.exit
  %.0 = phi ptr [ %32, %PyStgInfo_FromObject.exit ], [ null, %6 ], [ null, %.thread ], [ null, %34 ], [ null, %36 ], [ null, %39 ]
  ret ptr %.0
}